target datalayout = "e-m:e-p270:32:32-p271:32:32-p272:64:64-i64:64-i128:128-f80:128-n8:16:32:64-S128"
target triple = "x86_64-pc-linux-gnu"

%struct.AVCodecContext = type { ptr, i32, i32, ptr, i32, i32, ptr, ptr, ptr, i64, i32, i32, ptr, i32, %struct.AVRational, %struct.AVRational, %struct.AVRational, i32, i32, i32, i32, i32, %struct.AVRational, i32, i32, i32, i32, i32, i32, i32, i32, i32, i32, i32, ptr, ptr, i32, float, float, float, float, float, float, float, float, float, i32, i32, i32, i32, i32, i32, i32, i32, i32, i32, i32, i32, ptr, ptr, ptr, i32, i32, i32, i32, i32, i32, i32, i32, i32, i32, %struct.AVChannelLayout, i32, i32, i32, i32, i32, i32, i32, i32, ptr, i32, i32, i32, float, float, i32, i32, i32, i32, i32, ptr, i64, i64, float, float, i32, i32, ptr, ptr, i32, i32, i32, i32, i32, ptr, ptr, ptr, ptr, i32, i32, [8 x i64], i32, i32, i32, i32, i32, i32, i32, ptr, ptr, i32, i32, i32, i32, i32, i32, i32, i32, i32, i32, ptr, ptr, i32, i32, ptr, ptr, ptr, ptr, i32, i32, i64, i32, i32, i64, ptr, i64, ptr, i32, ptr, i32 }
%struct.AVRational = type { i32, i32 }
%struct.AVChannelLayout = type { i32, i32, %union.anon, ptr }
%union.anon = type { i64 }
%struct.AVCodecInternal = type { i32, i32, i32, ptr, ptr, ptr, ptr, ptr, ptr, ptr, i32, ptr, ptr, ptr, i32, i32, ptr, i32, ptr, ptr, i32, i32 }
%struct.VAAPIDecodePicture = type { i32, i32, ptr, i32, i32, ptr, i32 }
%struct.VAAPIDecodeContext = type { i32, i32, ptr, ptr, ptr, ptr, i32, i32, %struct._VASurfaceAttrib }
%struct._VASurfaceAttrib = type { i32, i32, %struct._VAGenericValue }
%struct._VAGenericValue = type { i32, %union.anon.0 }
%union.anon.0 = type { ptr }
%struct.AVVAAPIDeviceContext = type { ptr, i32 }

@.str.12 = private unnamed_addr constant [24 x i8] c"Decode to surface %#x.\0A\00", align 1
@.str.13 = private unnamed_addr constant [48 x i8] c"Failed to begin picture decode issue: %d (%s).\0A\00", align 1
@.str.14 = private unnamed_addr constant [46 x i8] c"Failed to upload decode parameters: %d (%s).\0A\00", align 1
@.str.15 = private unnamed_addr constant [35 x i8] c"Failed to upload slices: %d (%s).\0A\00", align 1
@.str.16 = private unnamed_addr constant [46 x i8] c"Failed to end picture decode issue: %d (%s).\0A\00", align 1
@.str.17 = private unnamed_addr constant [52 x i8] c"Failed to end picture decode after error: %d (%s).\0A\00", align 1

; Function Attrs: nounwind uwtable
define i32 @ff_vaapi_decode_issue(ptr noundef %0, ptr noundef %1) #0 {
  %3 = alloca ptr, align 8
  %4 = alloca ptr, align 8
  %5 = alloca ptr, align 8
  %6 = alloca i32, align 4
  %7 = alloca i32, align 4
  store ptr %0, ptr %3, align 8, !tbaa !4
  store ptr %1, ptr %4, align 8, !tbaa !9
  call void @llvm.lifetime.start.p0(i64 8, ptr %5) #6
  %8 = load ptr, ptr %3, align 8, !tbaa !4
  %9 = getelementptr inbounds nuw %struct.AVCodecContext, ptr %8, i32 0, i32 7
  %10 = load ptr, ptr %9, align 8, !tbaa !16
  %11 = getelementptr inbounds nuw %struct.AVCodecInternal, ptr %10, i32 0, i32 16
  %12 = load ptr, ptr %11, align 8, !tbaa !34
  store ptr %12, ptr %5, align 8, !tbaa !41
  call void @llvm.lifetime.start.p0(i64 4, ptr %6) #6
  call void @llvm.lifetime.start.p0(i64 4, ptr %7) #6
  %13 = load ptr, ptr %4, align 8, !tbaa !9
  %14 = getelementptr inbounds nuw %struct.VAAPIDecodePicture, ptr %13, i32 0, i32 4
  %15 = load i32, ptr %14, align 4, !tbaa !59
  %16 = icmp sle i32 %15, 0
  br i1 %16, label %17, label %18

17:                                               ; preds = %2
  store i32 -22, ptr %7, align 4, !tbaa !11
  br label %127

18:                                               ; preds = %2
  %19 = load ptr, ptr %3, align 8, !tbaa !4
  %20 = load ptr, ptr %4, align 8, !tbaa !9
  %21 = getelementptr inbounds nuw %struct.VAAPIDecodePicture, ptr %20, i32 0, i32 0
  %22 = load i32, ptr %21, align 8, !tbaa !62
  call void (ptr, i32, ptr, ...) @av_log(ptr noundef %19, i32 noundef 48, ptr noundef @.str.12, i32 noundef %22)
  %23 = load ptr, ptr %5, align 8, !tbaa !41
  %24 = getelementptr inbounds nuw %struct.VAAPIDecodeContext, ptr %23, i32 0, i32 3
  %25 = load ptr, ptr %24, align 8, !tbaa !48
  %26 = getelementptr inbounds nuw %struct.AVVAAPIDeviceContext, ptr %25, i32 0, i32 0
  %27 = load ptr, ptr %26, align 8, !tbaa !56
  %28 = load ptr, ptr %5, align 8, !tbaa !41
  %29 = getelementptr inbounds nuw %struct.VAAPIDecodeContext, ptr %28, i32 0, i32 1
  %30 = load i32, ptr %29, align 4, !tbaa !58
  %31 = load ptr, ptr %4, align 8, !tbaa !9
  %32 = getelementptr inbounds nuw %struct.VAAPIDecodePicture, ptr %31, i32 0, i32 0
  %33 = load i32, ptr %32, align 8, !tbaa !62
  %34 = call i32 @vaBeginPicture(ptr noundef %27, i32 noundef %30, i32 noundef %33)
  store i32 %34, ptr %6, align 4, !tbaa !11
  %35 = load i32, ptr %6, align 4, !tbaa !11
  %36 = icmp ne i32 %35, 0
  br i1 %36, label %37, label %42

37:                                               ; preds = %18
  %38 = load ptr, ptr %3, align 8, !tbaa !4
  %39 = load i32, ptr %6, align 4, !tbaa !11
  %40 = load i32, ptr %6, align 4, !tbaa !11
  %41 = call ptr @vaErrorStr(i32 noundef %40)
  call void (ptr, i32, ptr, ...) @av_log(ptr noundef %38, i32 noundef 16, ptr noundef @.str.13, i32 noundef %39, ptr noundef %41)
  store i32 -5, ptr %7, align 4, !tbaa !11
  br label %109

42:                                               ; preds = %18
  %43 = load ptr, ptr %5, align 8, !tbaa !41
  %44 = getelementptr inbounds nuw %struct.VAAPIDecodeContext, ptr %43, i32 0, i32 3
  %45 = load ptr, ptr %44, align 8, !tbaa !48
  %46 = getelementptr inbounds nuw %struct.AVVAAPIDeviceContext, ptr %45, i32 0, i32 0
  %47 = load ptr, ptr %46, align 8, !tbaa !56
  %48 = load ptr, ptr %5, align 8, !tbaa !41
  %49 = getelementptr inbounds nuw %struct.VAAPIDecodeContext, ptr %48, i32 0, i32 1
  %50 = load i32, ptr %49, align 4, !tbaa !58
  %51 = load ptr, ptr %4, align 8, !tbaa !9
  %52 = getelementptr inbounds nuw %struct.VAAPIDecodePicture, ptr %51, i32 0, i32 2
  %53 = load ptr, ptr %52, align 8, !tbaa !46
  %54 = load ptr, ptr %4, align 8, !tbaa !9
  %55 = getelementptr inbounds nuw %struct.VAAPIDecodePicture, ptr %54, i32 0, i32 1
  %56 = load i32, ptr %55, align 4, !tbaa !43
  %57 = call i32 @vaRenderPicture(ptr noundef %47, i32 noundef %50, ptr noundef %53, i32 noundef %56)
  store i32 %57, ptr %6, align 4, !tbaa !11
  %58 = load i32, ptr %6, align 4, !tbaa !11
  %59 = icmp ne i32 %58, 0
  br i1 %59, label %60, label %65

60:                                               ; preds = %42
  %61 = load ptr, ptr %3, align 8, !tbaa !4
  %62 = load i32, ptr %6, align 4, !tbaa !11
  %63 = load i32, ptr %6, align 4, !tbaa !11
  %64 = call ptr @vaErrorStr(i32 noundef %63)
  call void (ptr, i32, ptr, ...) @av_log(ptr noundef %61, i32 noundef 16, ptr noundef @.str.14, i32 noundef %62, ptr noundef %64)
  store i32 -5, ptr %7, align 4, !tbaa !11
  br label %109

65:                                               ; preds = %42
  %66 = load ptr, ptr %5, align 8, !tbaa !41
  %67 = getelementptr inbounds nuw %struct.VAAPIDecodeContext, ptr %66, i32 0, i32 3
  %68 = load ptr, ptr %67, align 8, !tbaa !48
  %69 = getelementptr inbounds nuw %struct.AVVAAPIDeviceContext, ptr %68, i32 0, i32 0
  %70 = load ptr, ptr %69, align 8, !tbaa !56
  %71 = load ptr, ptr %5, align 8, !tbaa !41
  %72 = getelementptr inbounds nuw %struct.VAAPIDecodeContext, ptr %71, i32 0, i32 1
  %73 = load i32, ptr %72, align 4, !tbaa !58
  %74 = load ptr, ptr %4, align 8, !tbaa !9
  %75 = getelementptr inbounds nuw %struct.VAAPIDecodePicture, ptr %74, i32 0, i32 5
  %76 = load ptr, ptr %75, align 8, !tbaa !61
  %77 = load ptr, ptr %4, align 8, !tbaa !9
  %78 = getelementptr inbounds nuw %struct.VAAPIDecodePicture, ptr %77, i32 0, i32 4
  %79 = load i32, ptr %78, align 4, !tbaa !59
  %80 = mul nsw i32 2, %79
  %81 = call i32 @vaRenderPicture(ptr noundef %70, i32 noundef %73, ptr noundef %76, i32 noundef %80)
  store i32 %81, ptr %6, align 4, !tbaa !11
  %82 = load i32, ptr %6, align 4, !tbaa !11
  %83 = icmp ne i32 %82, 0
  br i1 %83, label %84, label %89

84:                                               ; preds = %65
  %85 = load ptr, ptr %3, align 8, !tbaa !4
  %86 = load i32, ptr %6, align 4, !tbaa !11
  %87 = load i32, ptr %6, align 4, !tbaa !11
  %88 = call ptr @vaErrorStr(i32 noundef %87)
  call void (ptr, i32, ptr, ...) @av_log(ptr noundef %85, i32 noundef 16, ptr noundef @.str.15, i32 noundef %86, ptr noundef %88)
  store i32 -5, ptr %7, align 4, !tbaa !11
  br label %109

89:                                               ; preds = %65
  %90 = load ptr, ptr %5, align 8, !tbaa !41
  %91 = getelementptr inbounds nuw %struct.VAAPIDecodeContext, ptr %90, i32 0, i32 3
  %92 = load ptr, ptr %91, align 8, !tbaa !48
  %93 = getelementptr inbounds nuw %struct.AVVAAPIDeviceContext, ptr %92, i32 0, i32 0
  %94 = load ptr, ptr %93, align 8, !tbaa !56
  %95 = load ptr, ptr %5, align 8, !tbaa !41
  %96 = getelementptr inbounds nuw %struct.VAAPIDecodeContext, ptr %95, i32 0, i32 1
  %97 = load i32, ptr %96, align 4, !tbaa !58
  %98 = call i32 @vaEndPicture(ptr noundef %94, i32 noundef %97)
  store i32 %98, ptr %6, align 4, !tbaa !11
  %99 = load i32, ptr %6, align 4, !tbaa !11
  %100 = icmp ne i32 %99, 0
  br i1 %100, label %101, label %106

101:                                              ; preds = %89
  %102 = load ptr, ptr %3, align 8, !tbaa !4
  %103 = load i32, ptr %6, align 4, !tbaa !11
  %104 = load i32, ptr %6, align 4, !tbaa !11
  %105 = call ptr @vaErrorStr(i32 noundef %104)
  call void (ptr, i32, ptr, ...) @av_log(ptr noundef %102, i32 noundef 16, ptr noundef @.str.16, i32 noundef %103, ptr noundef %105)
  store i32 -5, ptr %7, align 4, !tbaa !11
  br label %127

106:                                              ; preds = %89
  %107 = load ptr, ptr %3, align 8, !tbaa !4
  %108 = load ptr, ptr %4, align 8, !tbaa !9
  call void @ff_vaapi_decode_destroy_buffers(ptr noundef %107, ptr noundef %108)
  store i32 0, ptr %7, align 4, !tbaa !11
  br label %131

109:                                              ; preds = %84, %60, %37
  %110 = load ptr, ptr %5, align 8, !tbaa !41
  %111 = getelementptr inbounds nuw %struct.VAAPIDecodeContext, ptr %110, i32 0, i32 3
  %112 = load ptr, ptr %111, align 8, !tbaa !48
  %113 = getelementptr inbounds nuw %struct.AVVAAPIDeviceContext, ptr %112, i32 0, i32 0
  %114 = load ptr, ptr %113, align 8, !tbaa !56
  %115 = load ptr, ptr %5, align 8, !tbaa !41
  %116 = getelementptr inbounds nuw %struct.VAAPIDecodeContext, ptr %115, i32 0, i32 1
  %117 = load i32, ptr %116, align 4, !tbaa !58
  %118 = call i32 @vaEndPicture(ptr noundef %114, i32 noundef %117)
  store i32 %118, ptr %6, align 4, !tbaa !11
  %119 = load i32, ptr %6, align 4, !tbaa !11
  %120 = icmp ne i32 %119, 0
  br i1 %120, label %121, label %126

121:                                              ; preds = %109
  %122 = load ptr, ptr %3, align 8, !tbaa !4
  %123 = load i32, ptr %6, align 4, !tbaa !11
  %124 = load i32, ptr %6, align 4, !tbaa !11
  %125 = call ptr @vaErrorStr(i32 noundef %124)
  call void (ptr, i32, ptr, ...) @av_log(ptr noundef %122, i32 noundef 16, ptr noundef @.str.17, i32 noundef %123, ptr noundef %125)
  br label %126

126:                                              ; preds = %121, %109
  br label %127

127:                                              ; preds = %126, %101, %17
  %128 = load ptr, ptr %3, align 8, !tbaa !4
  %129 = load ptr, ptr %4, align 8, !tbaa !9
  call void @ff_vaapi_decode_destroy_buffers(ptr noundef %128, ptr noundef %129)
  br label %130

130:                                              ; preds = %127
  br label %131

131:                                              ; preds = %130, %106
  %132 = load ptr, ptr %4, align 8, !tbaa !9
  %133 = getelementptr inbounds nuw %struct.VAAPIDecodePicture, ptr %132, i32 0, i32 1
  store i32 0, ptr %133, align 4, !tbaa !43
  %134 = load ptr, ptr %4, align 8, !tbaa !9
  %135 = getelementptr inbounds nuw %struct.VAAPIDecodePicture, ptr %134, i32 0, i32 3
  store i32 0, ptr %135, align 8, !tbaa !45
  %136 = load ptr, ptr %4, align 8, !tbaa !9
  %137 = getelementptr inbounds nuw %struct.VAAPIDecodePicture, ptr %136, i32 0, i32 2
  call void @av_freep(ptr noundef %137)
  %138 = load ptr, ptr %4, align 8, !tbaa !9
  %139 = getelementptr inbounds nuw %struct.VAAPIDecodePicture, ptr %138, i32 0, i32 4
  store i32 0, ptr %139, align 4, !tbaa !59
  %140 = load ptr, ptr %4, align 8, !tbaa !9
  %141 = getelementptr inbounds nuw %struct.VAAPIDecodePicture, ptr %140, i32 0, i32 6
  store i32 0, ptr %141, align 8, !tbaa !60
  %142 = load ptr, ptr %4, align 8, !tbaa !9
  %143 = getelementptr inbounds nuw %struct.VAAPIDecodePicture, ptr %142, i32 0, i32 5
  call void @av_freep(ptr noundef %143)
  %144 = load i32, ptr %7, align 4, !tbaa !11
  call void @llvm.lifetime.end.p0(i64 4, ptr %7) #6
  call void @llvm.lifetime.end.p0(i64 4, ptr %6) #6
  call void @llvm.lifetime.end.p0(i64 8, ptr %5) #6
  ret i32 %144
}