; Function Attrs: nounwind uwtable
define range(i32 -22, 1) i32 @ff_vaapi_decode_issue(ptr noundef %0, ptr noundef %1) local_unnamed_addr #0 {
  %3 = getelementptr inbounds nuw i8, ptr %1, i64 20
  %4 = load i32, ptr %3, align 4, !tbaa !50
  %5 = icmp slt i32 %4, 1
  br i1 %5, label %57, label %6

6:                                                ; preds = %2
  %7 = getelementptr inbounds nuw i8, ptr %0, i64 40
  %8 = load ptr, ptr %7, align 8, !tbaa !4
  %9 = getelementptr inbounds nuw i8, ptr %8, i64 112
  %10 = load ptr, ptr %9, align 8, !tbaa !27
  %11 = load i32, ptr %1, align 8, !tbaa !53
  tail call void (ptr, i32, ptr, ...) @av_log(ptr noundef %0, i32 noundef 48, ptr noundef nonnull @.str.12, i32 noundef %11) #4
  %12 = getelementptr inbounds nuw i8, ptr %10, i64 16
  %13 = load ptr, ptr %12, align 8, !tbaa !38
  %14 = load ptr, ptr %13, align 8, !tbaa !46
  %15 = getelementptr inbounds nuw i8, ptr %10, i64 4
  %16 = load i32, ptr %15, align 4, !tbaa !48
  %17 = load i32, ptr %1, align 8, !tbaa !53
  %18 = tail call i32 @vaBeginPicture(ptr noundef %14, i32 noundef %16, i32 noundef %17) #4
  %.not = icmp eq i32 %18, 0
  br i1 %.not, label %21, label %19

19:                                               ; preds = %6
  %20 = tail call ptr @vaErrorStr(i32 noundef %18) #4
  tail call void (ptr, i32, ptr, ...) @av_log(ptr noundef nonnull %0, i32 noundef 16, ptr noundef nonnull @.str.13, i32 noundef %18, ptr noundef %20) #4
  br label %50

21:                                               ; preds = %6
  %22 = load ptr, ptr %12, align 8, !tbaa !38
  %23 = load ptr, ptr %22, align 8, !tbaa !46
  %24 = load i32, ptr %15, align 4, !tbaa !48
  %25 = getelementptr inbounds nuw i8, ptr %1, i64 8
  %26 = load ptr, ptr %25, align 8, !tbaa !37
  %27 = getelementptr inbounds nuw i8, ptr %1, i64 4
  %28 = load i32, ptr %27, align 4, !tbaa !34
  %29 = tail call i32 @vaRenderPicture(ptr noundef %23, i32 noundef %24, ptr noundef %26, i32 noundef %28) #4
  %.not54 = icmp eq i32 %29, 0
  br i1 %.not54, label %32, label %30

30:                                               ; preds = %21
  %31 = tail call ptr @vaErrorStr(i32 noundef %29) #4
  tail call void (ptr, i32, ptr, ...) @av_log(ptr noundef nonnull %0, i32 noundef 16, ptr noundef nonnull @.str.14, i32 noundef %29, ptr noundef %31) #4
  br label %50

32:                                               ; preds = %21
  %33 = load ptr, ptr %12, align 8, !tbaa !38
  %34 = load ptr, ptr %33, align 8, !tbaa !46
  %35 = load i32, ptr %15, align 4, !tbaa !48
  %36 = getelementptr inbounds nuw i8, ptr %1, i64 24
  %37 = load ptr, ptr %36, align 8, !tbaa !52
  %38 = load i32, ptr %3, align 4, !tbaa !50
  %39 = shl nsw i32 %38, 1
  %40 = tail call i32 @vaRenderPicture(ptr noundef %34, i32 noundef %35, ptr noundef %37, i32 noundef %39) #4
  %.not55 = icmp eq i32 %40, 0
  br i1 %.not55, label %43, label %41

41:                                               ; preds = %32
  %42 = tail call ptr @vaErrorStr(i32 noundef %40) #4
  tail call void (ptr, i32, ptr, ...) @av_log(ptr noundef nonnull %0, i32 noundef 16, ptr noundef nonnull @.str.15, i32 noundef %40, ptr noundef %42) #4
  br label %50

43:                                               ; preds = %32
  %44 = load ptr, ptr %12, align 8, !tbaa !38
  %45 = load ptr, ptr %44, align 8, !tbaa !46
  %46 = load i32, ptr %15, align 4, !tbaa !48
  %47 = tail call i32 @vaEndPicture(ptr noundef %45, i32 noundef %46) #4
  %.not56 = icmp eq i32 %47, 0
  br i1 %.not56, label %57, label %48

48:                                               ; preds = %43
  %49 = tail call ptr @vaErrorStr(i32 noundef %47) #4
  tail call void (ptr, i32, ptr, ...) @av_log(ptr noundef nonnull %0, i32 noundef 16, ptr noundef nonnull @.str.16, i32 noundef %47, ptr noundef %49) #4
  br label %57

50:                                               ; preds = %41, %30, %19
  %51 = load ptr, ptr %12, align 8, !tbaa !38
  %52 = load ptr, ptr %51, align 8, !tbaa !46
  %53 = load i32, ptr %15, align 4, !tbaa !48
  %54 = tail call i32 @vaEndPicture(ptr noundef %52, i32 noundef %53) #4
  %.not57 = icmp eq i32 %54, 0
  br i1 %.not57, label %57, label %55

55:                                               ; preds = %50
  %56 = tail call ptr @vaErrorStr(i32 noundef %54) #4
  tail call void (ptr, i32, ptr, ...) @av_log(ptr noundef nonnull %0, i32 noundef 16, ptr noundef nonnull @.str.17, i32 noundef %54, ptr noundef %56) #4
  br label %57

57:                                               ; preds = %48, %55, %50, %2, %43
  %.2 = phi i32 [ 0, %43 ], [ -5, %55 ], [ -5, %50 ], [ -5, %48 ], [ -22, %2 ]
  tail call fastcc void @ff_vaapi_decode_destroy_buffers(ptr noundef %0, ptr noundef nonnull %1)
  %58 = getelementptr inbounds nuw i8, ptr %1, i64 4
  store i32 0, ptr %58, align 4, !tbaa !34
  %59 = getelementptr inbounds nuw i8, ptr %1, i64 16
  store i32 0, ptr %59, align 8, !tbaa !36
  %60 = getelementptr inbounds nuw i8, ptr %1, i64 8
  tail call void @av_freep(ptr noundef nonnull %60) #4
  store i32 0, ptr %3, align 4, !tbaa !50
  %61 = getelementptr inbounds nuw i8, ptr %1, i64 32
  store i32 0, ptr %61, align 8, !tbaa !51
  %62 = getelementptr inbounds nuw i8, ptr %1, i64 24
  tail call void @av_freep(ptr noundef nonnull %62) #4
  ret i32 %.2
}